; Function Attrs: mustprogress uwtable
define void @_Z25output_env_get_time_labelB5cxx11PK16gmx_output_env_t(ptr dead_on_unwind noalias writable sret(%"class.std::__cxx11::basic_string") align 8 %0, ptr noundef readonly captures(none) %1) local_unnamed_addr #0 {
  %3 = getelementptr inbounds nuw i8, ptr %1, i64 8
  %4 = load i32, ptr %3, align 8, !tbaa !17
  %5 = sext i32 %4 to i64
  %6 = getelementptr inbounds nuw [6 x ptr], ptr @_ZL15c_timeUnitNames, i64 0, i64 %5
  %7 = load ptr, ptr %6, align 8, !tbaa !21
  tail call void (ptr, ptr, ...) @_ZN3gmx12formatStringB5cxx11EPKcz(ptr dead_on_unwind writable sret(%"class.std::__cxx11::basic_string") align 8 %0, ptr noundef nonnull @.str.8, ptr noundef %7)
  ret void
}